target datalayout = "e-m:e-p270:32:32-p271:32:32-p272:64:64-i64:64-i128:128-f80:128-n8:16:32:64-S128"
target triple = "x86_64-pc-linux-gnu"

%struct.lv_area_t = type { i32, i32, i32, i32 }

; Function Attrs: nounwind uwtable
define void @lv_area_set_height(ptr noundef %0, i32 noundef %1) #0 {
  %3 = alloca ptr, align 8
  %4 = alloca i32, align 4
  store ptr %0, ptr %3, align 8, !tbaa !3
  store i32 %1, ptr %4, align 4, !tbaa !7
  %5 = load ptr, ptr %3, align 8, !tbaa !3
  %6 = getelementptr inbounds nuw %struct.lv_area_t, ptr %5, i32 0, i32 1
  %7 = load i32, ptr %6, align 4, !tbaa !11
  %8 = load i32, ptr %4, align 4, !tbaa !7
  %9 = add nsw i32 %7, %8
  %10 = sub nsw i32 %9, 1
  %11 = load ptr, ptr %3, align 8, !tbaa !3
  %12 = getelementptr inbounds nuw %struct.lv_area_t, ptr %11, i32 0, i32 3
  store i32 %10, ptr %12, align 4, !tbaa !13
  ret void
}

; Function Attrs: nounwind uwtable
define void @lv_area_set_width(ptr noundef %0, i32 noundef %1) #0 {
  %3 = alloca ptr, align 8
  %4 = alloca i32, align 4
  store ptr %0, ptr %3, align 8, !tbaa !3
  store i32 %1, ptr %4, align 4, !tbaa !7
  %5 = load ptr, ptr %3, align 8, !tbaa !3
  %6 = getelementptr inbounds nuw %struct.lv_area_t, ptr %5, i32 0, i32 0
  %7 = load i32, ptr %6, align 4, !tbaa !9
  %8 = load i32, ptr %4, align 4, !tbaa !7
  %9 = add nsw i32 %7, %8
  %10 = sub nsw i32 %9, 1
  %11 = load ptr, ptr %3, align 8, !tbaa !3
  %12 = getelementptr inbounds nuw %struct.lv_area_t, ptr %11, i32 0, i32 2
  store i32 %10, ptr %12, align 4, !tbaa !12
  ret void
}

; Function Attrs: nounwind uwtable
define i32 @lv_area_get_height(ptr noundef %0) #0 {
  %2 = alloca ptr, align 8
  store ptr %0, ptr %2, align 8, !tbaa !3
  %3 = load ptr, ptr %2, align 8, !tbaa !3
  %4 = getelementptr inbounds nuw %struct.lv_area_t, ptr %3, i32 0, i32 3
  %5 = load i32, ptr %4, align 4, !tbaa !13
  %6 = load ptr, ptr %2, align 8, !tbaa !3
  %7 = getelementptr inbounds nuw %struct.lv_area_t, ptr %6, i32 0, i32 1
  %8 = load i32, ptr %7, align 4, !tbaa !11
  %9 = sub nsw i32 %5, %8
  %10 = add nsw i32 %9, 1
  ret i32 %10
}

; Function Attrs: nounwind uwtable
define i32 @lv_area_get_width(ptr noundef %0) #0 {
  %2 = alloca ptr, align 8
  store ptr %0, ptr %2, align 8, !tbaa !3
  %3 = load ptr, ptr %2, align 8, !tbaa !3
  %4 = getelementptr inbounds nuw %struct.lv_area_t, ptr %3, i32 0, i32 2
  %5 = load i32, ptr %4, align 4, !tbaa !12
  %6 = load ptr, ptr %2, align 8, !tbaa !3
  %7 = getelementptr inbounds nuw %struct.lv_area_t, ptr %6, i32 0, i32 0
  %8 = load i32, ptr %7, align 4, !tbaa !9
  %9 = sub nsw i32 %5, %8
  %10 = add nsw i32 %9, 1
  ret i32 %10
}

; Function Attrs: nounwind uwtable
define void @lv_area_set_pos(ptr noundef %0, i32 noundef %1, i32 noundef %2) #0 {
  %4 = alloca ptr, align 8
  %5 = alloca i32, align 4
  %6 = alloca i32, align 4
  %7 = alloca i32, align 4
  %8 = alloca i32, align 4
  store ptr %0, ptr %4, align 8, !tbaa !3
  store i32 %1, ptr %5, align 4, !tbaa !7
  store i32 %2, ptr %6, align 4, !tbaa !7
  call void @llvm.lifetime.start.p0(i64 4, ptr %7) #5
  %9 = load ptr, ptr %4, align 8, !tbaa !3
  %10 = call i32 @lv_area_get_width(ptr noundef %9)
  store i32 %10, ptr %7, align 4, !tbaa !7
  call void @llvm.lifetime.start.p0(i64 4, ptr %8) #5
  %11 = load ptr, ptr %4, align 8, !tbaa !3
  %12 = call i32 @lv_area_get_height(ptr noundef %11)
  store i32 %12, ptr %8, align 4, !tbaa !7
  %13 = load i32, ptr %5, align 4, !tbaa !7
  %14 = load ptr, ptr %4, align 8, !tbaa !3
  %15 = getelementptr inbounds nuw %struct.lv_area_t, ptr %14, i32 0, i32 0
  store i32 %13, ptr %15, align 4, !tbaa !9
  %16 = load i32, ptr %6, align 4, !tbaa !7
  %17 = load ptr, ptr %4, align 8, !tbaa !3
  %18 = getelementptr inbounds nuw %struct.lv_area_t, ptr %17, i32 0, i32 1
  store i32 %16, ptr %18, align 4, !tbaa !11
  %19 = load ptr, ptr %4, align 8, !tbaa !3
  %20 = load i32, ptr %7, align 4, !tbaa !7
  call void @lv_area_set_width(ptr noundef %19, i32 noundef %20)
  %21 = load ptr, ptr %4, align 8, !tbaa !3
  %22 = load i32, ptr %8, align 4, !tbaa !7
  call void @lv_area_set_height(ptr noundef %21, i32 noundef %22)
  call void @llvm.lifetime.end.p0(i64 4, ptr %8) #5
  call void @llvm.lifetime.end.p0(i64 4, ptr %7) #5
  ret void
}