; Function Attrs: mustprogress nofree norecurse nosync nounwind willreturn memory(argmem: readwrite) uwtable
define void @lv_area_set_pos(ptr noundef captures(none) %0, i32 noundef %1, i32 noundef %2) local_unnamed_addr #1 {
  %4 = getelementptr inbounds nuw i8, ptr %0, i64 8
  %5 = load i32, ptr %4, align 4, !tbaa !9
  %6 = load i32, ptr %0, align 4, !tbaa !3
  %7 = getelementptr inbounds nuw i8, ptr %0, i64 12
  %8 = load i32, ptr %7, align 4, !tbaa !10
  %9 = getelementptr inbounds nuw i8, ptr %0, i64 4
  %10 = load i32, ptr %9, align 4, !tbaa !8
  store i32 %1, ptr %0, align 4, !tbaa !3
  store i32 %2, ptr %9, align 4, !tbaa !8
  %11 = add i32 %5, %1
  %12 = sub i32 %11, %6
  store i32 %12, ptr %4, align 4, !tbaa !9
  %13 = add i32 %8, %2
  %14 = sub i32 %13, %10
  store i32 %14, ptr %7, align 4, !tbaa !10
  ret void
}